; Function Attrs: mustprogress nofree norecurse nosync nounwind willreturn memory(argmem: write) uwtable
define void @_ZN5nblib18zeroCartesianArrayEN3gmx8ArrayRefINS0_11BasicVectorIfEEEE(ptr %0, ptr %1) local_unnamed_addr #19 {
  %.not4.i.i.i = icmp eq ptr %0, %1
  br i1 %.not4.i.i.i, label %_ZSt4fillIN3gmx12ArrayRefIterINS0_11BasicVectorIfEEEES3_EvT_S5_RKT0_.exit, label %.lr.ph.i.i.i.preheader

.lr.ph.i.i.i.preheader:                           ; preds = %2
  %3 = ptrtoint ptr %1 to i64
  %4 = ptrtoint ptr %0 to i64
  %5 = add i64 %3, -12
  %6 = sub i64 %5, %4
  %.fr = freeze i64 %6
  %7 = urem i64 %.fr, 12
  %8 = sub nuw i64 %.fr, %7
  %9 = add i64 %8, 12
  tail call void @llvm.memset.p0.i64(ptr align 4 %0, i8 0, i64 %9, i1 false)
  br label %_ZSt4fillIN3gmx12ArrayRefIterINS0_11BasicVectorIfEEEES3_EvT_S5_RKT0_.exit

_ZSt4fillIN3gmx12ArrayRefIterINS0_11BasicVectorIfEEEES3_EvT_S5_RKT0_.exit: ; preds = %.lr.ph.i.i.i.preheader, %2
  ret void
}